
Discarded input sections

 .group         0x0000000000000000        0xc ./bsp.o
 .group         0x0000000000000000        0xc ./bsp.o
 .group         0x0000000000000000        0xc ./bsp.o
 .group         0x0000000000000000        0xc ./bsp.o
 .group         0x0000000000000000        0xc ./bsp.o
 .group         0x0000000000000000        0xc ./bsp.o
 .group         0x0000000000000000        0xc ./bsp.o
 .group         0x0000000000000000        0xc ./bsp.o
 .group         0x0000000000000000        0xc ./bsp.o
 .group         0x0000000000000000        0xc ./bsp.o
 .group         0x0000000000000000        0xc ./bsp.o
 .group         0x0000000000000000        0xc ./bsp.o
 .group         0x0000000000000000        0xc ./bsp.o
 .group         0x0000000000000000        0xc ./led.o
 .group         0x0000000000000000        0xc ./led.o
 .group         0x0000000000000000        0xc ./led.o
 .group         0x0000000000000000        0xc ./led.o
 .group         0x0000000000000000        0xc ./led.o
 .group         0x0000000000000000        0xc ./led.o
 .group         0x0000000000000000        0xc ./led.o
 .group         0x0000000000000000        0xc ./led.o
 .group         0x0000000000000000        0xc ./led.o
 .group         0x0000000000000000        0xc ./led.o
 .group         0x0000000000000000        0xc ./led.o
 .group         0x0000000000000000        0xc ./led.o
 .group         0x0000000000000000        0xc ./led.o
 .debug_macro   0x0000000000000000      0xa5a ./led.o
 .debug_macro   0x0000000000000000       0x2d ./led.o
 .debug_macro   0x0000000000000000       0x22 ./led.o
 .debug_macro   0x0000000000000000       0x8e ./led.o
 .debug_macro   0x0000000000000000       0x51 ./led.o
 .debug_macro   0x0000000000000000      0x103 ./led.o
 .debug_macro   0x0000000000000000       0x6a ./led.o
 .debug_macro   0x0000000000000000      0x1df ./led.o
 .debug_macro   0x0000000000000000       0x35 ./led.o
 .debug_macro   0x0000000000000000       0x50 ./led.o
 .debug_macro   0x0000000000000000      0xe66 ./led.o
 .debug_macro   0x0000000000000000      0x330 ./led.o
 .debug_macro   0x0000000000000000       0x34 ./led.o
 .group         0x0000000000000000        0xc ./main.o
 .group         0x0000000000000000        0xc ./main.o
 .group         0x0000000000000000        0xc ./main.o
 .group         0x0000000000000000        0xc ./main.o
 .group         0x0000000000000000        0xc ./main.o
 .group         0x0000000000000000        0xc ./main.o
 .group         0x0000000000000000        0xc ./main.o
 .group         0x0000000000000000        0xc ./main.o
 .group         0x0000000000000000        0xc ./main.o
 .group         0x0000000000000000        0xc ./main.o
 .group         0x0000000000000000        0xc ./main.o
 .group         0x0000000000000000        0xc ./main.o
 .group         0x0000000000000000        0xc ./main.o
 .debug_macro   0x0000000000000000      0xa5a ./main.o
 .debug_macro   0x0000000000000000       0x22 ./main.o
 .debug_macro   0x0000000000000000       0x8e ./main.o
 .debug_macro   0x0000000000000000       0x51 ./main.o
 .debug_macro   0x0000000000000000      0x103 ./main.o
 .debug_macro   0x0000000000000000       0x6a ./main.o
 .debug_macro   0x0000000000000000      0x1df ./main.o
 .debug_macro   0x0000000000000000       0x34 ./main.o
 .debug_macro   0x0000000000000000       0x2d ./main.o
 .debug_macro   0x0000000000000000       0x50 ./main.o
 .debug_macro   0x0000000000000000      0xe66 ./main.o
 .debug_macro   0x0000000000000000      0x330 ./main.o
 .group         0x0000000000000000        0xc ./startup_TM4C123.o
 .group         0x0000000000000000        0xc ./startup_TM4C123.o
 .group         0x0000000000000000        0xc ./startup_TM4C123.o
 .group         0x0000000000000000        0xc ./startup_TM4C123.o
 .group         0x0000000000000000        0xc ./startup_TM4C123.o
 .group         0x0000000000000000        0xc ./startup_TM4C123.o
 .group         0x0000000000000000        0xc ./startup_TM4C123.o
 .group         0x0000000000000000        0xc ./startup_TM4C123.o
 .group         0x0000000000000000        0xc ./startup_TM4C123.o
 .group         0x0000000000000000        0xc ./startup_TM4C123.o
 .group         0x0000000000000000        0xc ./startup_TM4C123.o
 .group         0x0000000000000000        0xc ./startup_TM4C123.o
 .debug_macro   0x0000000000000000      0xa5a ./startup_TM4C123.o
 .debug_macro   0x0000000000000000       0x22 ./startup_TM4C123.o
 .debug_macro   0x0000000000000000       0x8e ./startup_TM4C123.o
 .debug_macro   0x0000000000000000       0x51 ./startup_TM4C123.o
 .debug_macro   0x0000000000000000      0x103 ./startup_TM4C123.o
 .debug_macro   0x0000000000000000       0x6a ./startup_TM4C123.o
 .debug_macro   0x0000000000000000      0x1df ./startup_TM4C123.o
 .debug_macro   0x0000000000000000       0x2d ./startup_TM4C123.o
 .debug_macro   0x0000000000000000       0x3b ./startup_TM4C123.o
 .debug_macro   0x0000000000000000       0x50 ./startup_TM4C123.o
 .debug_macro   0x0000000000000000      0xe66 ./startup_TM4C123.o
 .debug_macro   0x0000000000000000      0x330 ./startup_TM4C123.o
 .group         0x0000000000000000        0xc ./system_TM4C123.o
 .group         0x0000000000000000        0xc ./system_TM4C123.o
 .group         0x0000000000000000        0xc ./system_TM4C123.o
 .group         0x0000000000000000        0xc ./system_TM4C123.o
 .group         0x0000000000000000        0xc ./system_TM4C123.o
 .group         0x0000000000000000        0xc ./system_TM4C123.o
 .group         0x0000000000000000        0xc ./system_TM4C123.o
 .group         0x0000000000000000        0xc ./system_TM4C123.o
 .group         0x0000000000000000        0xc ./system_TM4C123.o
 .group         0x0000000000000000        0xc ./system_TM4C123.o
 .group         0x0000000000000000        0xc ./system_TM4C123.o
 .group         0x0000000000000000        0xc ./system_TM4C123.o
 .debug_macro   0x0000000000000000      0xa5a ./system_TM4C123.o
 .debug_macro   0x0000000000000000       0x22 ./system_TM4C123.o
 .debug_macro   0x0000000000000000       0x8e ./system_TM4C123.o
 .debug_macro   0x0000000000000000       0x51 ./system_TM4C123.o
 .debug_macro   0x0000000000000000      0x103 ./system_TM4C123.o
 .debug_macro   0x0000000000000000       0x6a ./system_TM4C123.o
 .debug_macro   0x0000000000000000      0x1df ./system_TM4C123.o
 .debug_macro   0x0000000000000000       0x2d ./system_TM4C123.o
 .debug_macro   0x0000000000000000       0x3b ./system_TM4C123.o
 .debug_macro   0x0000000000000000       0x50 ./system_TM4C123.o
 .debug_macro   0x0000000000000000      0xe66 ./system_TM4C123.o
 .debug_macro   0x0000000000000000      0x330 ./system_TM4C123.o

Memory Configuration

Name             Origin             Length             Attributes
FLASH            0x0000000000000000 0x0000000000040000 xr
SRAM             0x0000000020000000 0x0000000000008000 xrw
*default*        0x0000000000000000 0xffffffffffffffff

Linker script and memory map

LOAD ./bsp.o
LOAD ./led.o
LOAD ./main.o
LOAD ./startup_TM4C123.o
LOAD ./system_TM4C123.o

.text           0x0000000000000000      0xb50
 *(.isr_vector)
 .isr_vector    0x0000000000000000      0x26c ./startup_TM4C123.o
                0x0000000000000000                vectors
 *(.text)
 .text          0x000000000000026c        0x0 ./bsp.o
 .text          0x000000000000026c        0x0 ./led.o
 .text          0x000000000000026c        0x0 ./main.o
 .text          0x000000000000026c        0x0 ./startup_TM4C123.o
 .text          0x000000000000026c        0x0 ./system_TM4C123.o
 *(.text.*)
 .text.NVIC_SystemReset
                0x000000000000026c       0x30 ./bsp.o
 .text.SysTick_Handler
                0x000000000000029c       0x10 ./bsp.o
                0x000000000000029c                SysTick_Handler
 .text.assert_failed
                0x00000000000002ac        0x6 ./bsp.o
                0x00000000000002ac                assert_failed
 *fill*         0x00000000000002b2        0x2 
 .text.led_apb_dir
                0x00000000000002b4       0x4c ./led.o
                0x00000000000002b4                led_apb_dir
 .text.led_apb_dig_en
                0x0000000000000300       0x4c ./led.o
                0x0000000000000300                led_apb_dig_en
 .text.led_apb_toggle
                0x000000000000034c       0x4c ./led.o
                0x000000000000034c                led_apb_toggle
 .text.led_apb_on
                0x0000000000000398       0x40 ./led.o
                0x0000000000000398                led_apb_on
 .text.led_apb_off
                0x00000000000003d8       0x44 ./led.o
                0x00000000000003d8                led_apb_off
 .text.led_apb_off_all
                0x000000000000041c       0x44 ./led.o
                0x000000000000041c                led_apb_off_all
 .text.led_ahb_dir
                0x0000000000000460       0x4c ./led.o
                0x0000000000000460                led_ahb_dir
 .text.led_ahb_dig_en
                0x00000000000004ac       0x4c ./led.o
                0x00000000000004ac                led_ahb_dig_en
 .text.led_ahb_toggle
                0x00000000000004f8       0x4c ./led.o
                0x00000000000004f8                led_ahb_toggle
 .text.led_ahb_on
                0x0000000000000544       0x40 ./led.o
                0x0000000000000544                led_ahb_on
 .text.led_ahb_off
                0x0000000000000584       0x44 ./led.o
                0x0000000000000584                led_ahb_off
 .text.led_ahb_off_all
                0x00000000000005c8       0x44 ./led.o
                0x00000000000005c8                led_ahb_off_all
 .text.main     0x000000000000060c       0x74 ./main.o
                0x000000000000060c                main
 .text.soft_delay
                0x0000000000000680       0x28 ./main.o
                0x0000000000000680                soft_delay
 .text.Reset_Handler
                0x00000000000006a8       0xa0 ./startup_TM4C123.o
                0x00000000000006a8                Reset_Handler
 .text.NMI_Handler
                0x0000000000000748       0x18 ./startup_TM4C123.o
                0x0000000000000748                NMI_Handler
 .text.MemManage_Handler
                0x0000000000000760       0x1c ./startup_TM4C123.o
                0x0000000000000760                MemManage_Handler
 .text.HardFault_Handler
                0x000000000000077c       0x1c ./startup_TM4C123.o
                0x000000000000077c                HardFault_Handler
 .text.BusFault_Handler
                0x0000000000000798       0x1c ./startup_TM4C123.o
                0x0000000000000798                BusFault_Handler
 .text.UsageFault_Handler
                0x00000000000007b4       0x20 ./startup_TM4C123.o
                0x00000000000007b4                UsageFault_Handler
 .text.Default_Handler
                0x00000000000007d4       0x1c ./startup_TM4C123.o
                0x00000000000007d4                FLASH_Handler
                0x00000000000007d4                TIMER5B_Handler
                0x00000000000007d4                DebugMon_Handler
                0x00000000000007d4                UART3_Handler
                0x00000000000007d4                I2C0_Handler
                0x00000000000007d4                PWM1_2_Handler
                0x00000000000007d4                UART2_Handler
                0x00000000000007d4                I2C1_Handler
                0x00000000000007d4                PendSV_Handler
                0x00000000000007d4                TIMER2B_Handler
                0x00000000000007d4                WTIMER1A_Handler
                0x00000000000007d4                PWM0_3_Handler
                0x00000000000007d4                USB0_Handler
                0x00000000000007d4                WTIMER2B_Handler
                0x00000000000007d4                SSI1_Handler
                0x00000000000007d4                COMP0_Handler
                0x00000000000007d4                ADC0SS0_Handler
                0x00000000000007d4                ADC1SS3_Handler
                0x00000000000007d4                ADC1SS2_Handler
                0x00000000000007d4                TIMER1B_Handler
                0x00000000000007d4                PWM1_1_Handler
                0x00000000000007d4                WTIMER2A_Handler
                0x00000000000007d4                ADC0SS3_Handler
                0x00000000000007d4                WDT_Handler
                0x00000000000007d4                CAN0_Handler
                0x00000000000007d4                PWM0_1_Handler
                0x00000000000007d4                UART1_Handler
                0x00000000000007d4                SSI2_Handler
                0x00000000000007d4                GPIOF_Handler
                0x00000000000007d4                ADC0SS1_Handler
                0x00000000000007d4                UDMAERR_Handler
                0x00000000000007d4                GPIOD_Handler
                0x00000000000007d4                SSI3_Handler
                0x00000000000007d4                PWM1_FAULT_Handler
                0x00000000000007d4                GPIOE_Handler
                0x00000000000007d4                ADC1SS1_Handler
                0x00000000000007d4                GPIOC_Handler
                0x00000000000007d4                UART4_Handler
                0x00000000000007d4                TIMER1A_Handler
                0x00000000000007d4                UART6_Handler
                0x00000000000007d4                Default_Handler
                0x00000000000007d4                GPIOA_Handler
                0x00000000000007d4                TIMER2A_Handler
                0x00000000000007d4                PMW1_0_Handler
                0x00000000000007d4                PMW0_FAULT_Handler
                0x00000000000007d4                UDMA_Handler
                0x00000000000007d4                WTIMER3B_Handler
                0x00000000000007d4                TIMER4B_Handler
                0x00000000000007d4                WTIMER0B_Handler
                0x00000000000007d4                CAN1_Handler
                0x00000000000007d4                UART7_Handler
                0x00000000000007d4                I2C2_Handler
                0x00000000000007d4                SVC_Handler
                0x00000000000007d4                QEI0_Handler
                0x00000000000007d4                GPIOB_Handler
                0x00000000000007d4                SYSCTL_Handler
                0x00000000000007d4                TIMER0B_Handler
                0x00000000000007d4                QEI1_Handler
                0x00000000000007d4                WTIMER1B_Handler
                0x00000000000007d4                TIMER4A_Handler
                0x00000000000007d4                TIMER3A_Handler
                0x00000000000007d4                ADC0SS2_Handler
                0x00000000000007d4                PWM1_3_Handler
                0x00000000000007d4                WTIMER0A_Handler
                0x00000000000007d4                TIMER5A_Handler
                0x00000000000007d4                WTIMER5B_Handler
                0x00000000000007d4                UART5_Handler
                0x00000000000007d4                UART0_Handler
                0x00000000000007d4                PWM0_0_Handler
                0x00000000000007d4                I2C3_Handler
                0x00000000000007d4                ADC1SS0_Handler
                0x00000000000007d4                TIMER3B_Handler
                0x00000000000007d4                WTIMER5A_Handler
                0x00000000000007d4                SSI0_Handler
                0x00000000000007d4                FPU_Handler
                0x00000000000007d4                COMP1_Handler
                0x00000000000007d4                TIMER0A_Handler
                0x00000000000007d4                WTIMER3A_Handler
                0x00000000000007d4                WTIMER4A_Handler
                0x00000000000007d4                HIB_Handler
                0x00000000000007d4                PWM0_2_Handler
                0x00000000000007d4                WTIMER4B_Handler
 .text.getOscClk
                0x00000000000007f0      0x194 ./system_TM4C123.o
 .text.SystemCoreClockUpdate
                0x0000000000000984      0x118 ./system_TM4C123.o
                0x0000000000000984                SystemCoreClockUpdate
 .text.SystemInit
                0x0000000000000a9c       0xb4 ./system_TM4C123.o
                0x0000000000000a9c                SystemInit
 *(.rodata)
 *(.rodata.*)
                0x0000000000000b50                . = ALIGN (0x4)
                0x0000000000000b50                _e_text = .

.glue_7         0x0000000000000b50        0x0
 .glue_7        0x0000000000000b50        0x0 linker stubs

.glue_7t        0x0000000000000b50        0x0
 .glue_7t       0x0000000000000b50        0x0 linker stubs

.vfp11_veneer   0x0000000000000b50        0x0
 .vfp11_veneer  0x0000000000000b50        0x0 linker stubs

.v4_bx          0x0000000000000b50        0x0
 .v4_bx         0x0000000000000b50        0x0 linker stubs

.iplt           0x0000000000000b50        0x0
 .iplt          0x0000000000000b50        0x0 ./bsp.o

.rel.dyn        0x0000000000000b50        0x0
 .rel.iplt      0x0000000000000b50        0x0 ./bsp.o

.data           0x0000000020000000        0x8 load address 0x0000000000000b50
                0x0000000020000000                _s_data = .
 *(.data)
 .data          0x0000000020000000        0x0 ./bsp.o
 .data          0x0000000020000000        0x0 ./led.o
 .data          0x0000000020000000        0x0 ./main.o
 .data          0x0000000020000000        0x0 ./startup_TM4C123.o
 .data          0x0000000020000000        0x0 ./system_TM4C123.o
 *(.data.*)
 .data.dummy    0x0000000020000000        0x4 ./main.o
                0x0000000020000000                dummy
 .data.SystemCoreClock
                0x0000000020000004        0x4 ./system_TM4C123.o
                0x0000000020000004                SystemCoreClock
                0x0000000020000008                . = ALIGN (0x4)
                0x0000000020000008                _e_data = .

.igot.plt       0x0000000020000008        0x0 load address 0x0000000000000b58
 .igot.plt      0x0000000020000008        0x0 ./bsp.o

.bss            0x0000000020000008        0x0 load address 0x0000000000000b58
                0x0000000020000008                _s_bss = .
 *(.bss)
 .bss           0x0000000020000008        0x0 ./bsp.o
 .bss           0x0000000020000008        0x0 ./led.o
 .bss           0x0000000020000008        0x0 ./main.o
 .bss           0x0000000020000008        0x0 ./startup_TM4C123.o
 .bss           0x0000000020000008        0x0 ./system_TM4C123.o
 *(.bss.*)
 *(COMMON*)
                0x0000000020000008                . = ALIGN (0x4)
                0x0000000020000008                _e_bss = .
OUTPUT(tiva.elf elf32-littlearm)
LOAD linker stubs

.debug_info     0x0000000000000000     0x25d7
 .debug_info    0x0000000000000000      0x335 ./bsp.o
 .debug_info    0x0000000000000335      0x535 ./led.o
 .debug_info    0x000000000000086a      0xde6 ./main.o
 .debug_info    0x0000000000001650      0x20e ./startup_TM4C123.o
 .debug_info    0x000000000000185e      0xd79 ./system_TM4C123.o

.debug_abbrev   0x0000000000000000      0x64d
 .debug_abbrev  0x0000000000000000      0x146 ./bsp.o
 .debug_abbrev  0x0000000000000146      0x134 ./led.o
 .debug_abbrev  0x000000000000027a      0x185 ./main.o
 .debug_abbrev  0x00000000000003ff       0xe9 ./startup_TM4C123.o
 .debug_abbrev  0x00000000000004e8      0x165 ./system_TM4C123.o

.debug_aranges  0x0000000000000000      0x150
 .debug_aranges
                0x0000000000000000       0x30 ./bsp.o
 .debug_aranges
                0x0000000000000030       0x78 ./led.o
 .debug_aranges
                0x00000000000000a8       0x28 ./main.o
 .debug_aranges
                0x00000000000000d0       0x50 ./startup_TM4C123.o
 .debug_aranges
                0x0000000000000120       0x30 ./system_TM4C123.o

.debug_ranges   0x0000000000000000      0x100
 .debug_ranges  0x0000000000000000       0x20 ./bsp.o
 .debug_ranges  0x0000000000000020       0x68 ./led.o
 .debug_ranges  0x0000000000000088       0x18 ./main.o
 .debug_ranges  0x00000000000000a0       0x40 ./startup_TM4C123.o
 .debug_ranges  0x00000000000000e0       0x20 ./system_TM4C123.o

.debug_macro    0x0000000000000000     0x2646
 .debug_macro   0x0000000000000000       0xdc ./bsp.o
 .debug_macro   0x00000000000000dc      0xa5a ./bsp.o
 .debug_macro   0x0000000000000b36       0x34 ./bsp.o
 .debug_macro   0x0000000000000b6a       0x2d ./bsp.o
 .debug_macro   0x0000000000000b97       0x22 ./bsp.o
 .debug_macro   0x0000000000000bb9       0x8e ./bsp.o
 .debug_macro   0x0000000000000c47       0x51 ./bsp.o
 .debug_macro   0x0000000000000c98      0x103 ./bsp.o
 .debug_macro   0x0000000000000d9b       0x6a ./bsp.o
 .debug_macro   0x0000000000000e05      0x1df ./bsp.o
 .debug_macro   0x0000000000000fe4       0x35 ./bsp.o
 .debug_macro   0x0000000000001019       0x50 ./bsp.o
 .debug_macro   0x0000000000001069      0xe66 ./bsp.o
 .debug_macro   0x0000000000001ecf      0x330 ./bsp.o
 .debug_macro   0x00000000000021ff       0xdc ./led.o
 .debug_macro   0x00000000000022db       0xdc ./main.o
 .debug_macro   0x00000000000023b7       0x3b ./main.o
 .debug_macro   0x00000000000023f2       0xdb ./startup_TM4C123.o
 .debug_macro   0x00000000000024cd      0x179 ./system_TM4C123.o

.debug_line     0x0000000000000000     0x1655
 .debug_line    0x0000000000000000      0x3c5 ./bsp.o
 .debug_line    0x00000000000003c5      0x522 ./led.o
 .debug_line    0x00000000000008e7      0x3b3 ./main.o
 .debug_line    0x0000000000000c9a      0x45b ./startup_TM4C123.o
 .debug_line    0x00000000000010f5      0x560 ./system_TM4C123.o

.debug_str      0x0000000000000000     0xa9d8
 .debug_str     0x0000000000000000     0x9d9f ./bsp.o
                                       0x9f22 (size before relaxing)
 .debug_str     0x0000000000009d9f      0x132 ./led.o
                                       0x9fcb (size before relaxing)
 .debug_str     0x0000000000009ed1      0x602 ./main.o
                                       0xa4aa (size before relaxing)
 .debug_str     0x000000000000a4d3      0x12b ./startup_TM4C123.o
                                       0x9f04 (size before relaxing)
 .debug_str     0x000000000000a5fe      0x3da ./system_TM4C123.o
                                       0xa757 (size before relaxing)

.comment        0x0000000000000000       0x4d
 .comment       0x0000000000000000       0x4d ./bsp.o
                                         0x4e (size before relaxing)
 .comment       0x000000000000004d       0x4e ./led.o
 .comment       0x000000000000004d       0x4e ./main.o
 .comment       0x000000000000004d       0x4e ./startup_TM4C123.o
 .comment       0x000000000000004d       0x4e ./system_TM4C123.o

.ARM.attributes
                0x0000000000000000       0x2e
 .ARM.attributes
                0x0000000000000000       0x2e ./bsp.o
 .ARM.attributes
                0x000000000000002e       0x2e ./led.o
 .ARM.attributes
                0x000000000000005c       0x2e ./main.o
 .ARM.attributes
                0x000000000000008a       0x2e ./startup_TM4C123.o
 .ARM.attributes
                0x00000000000000b8       0x2e ./system_TM4C123.o

.debug_frame    0x0000000000000000      0x3b0
 .debug_frame   0x0000000000000000       0x54 ./bsp.o
 .debug_frame   0x0000000000000054      0x1f0 ./led.o
 .debug_frame   0x0000000000000244       0x54 ./main.o
 .debug_frame   0x0000000000000298       0x94 ./startup_TM4C123.o
 .debug_frame   0x000000000000032c       0x84 ./system_TM4C123.o
